target datalayout = "e-m:e-p270:32:32-p271:32:32-p272:64:64-i64:64-i128:128-f80:128-n8:16:32:64-S128"
target triple = "x86_64-pc-linux-gnu"

%struct.t_nrnb = type { %"struct.std::array.151" }
%"struct.std::array.151" = type { [116 x double] }

@.str = private unnamed_addr constant [3 x i8] c"W3\00", align 1
@.str.1 = private unnamed_addr constant [3 x i8] c"W4\00", align 1

; Function Attrs: mustprogress nounwind uwtable
define linkonce_odr noundef nonnull align 8 dereferenceable(8) ptr @_ZNSt14__array_traitsIdLm116EE6_S_refERA116_Kdm(ptr noundef nonnull align 8 dereferenceable(928) %0, i64 noundef %1) #1 comdat align 2 {
  %3 = alloca ptr, align 8
  %4 = alloca i64, align 8
  store ptr %0, ptr %3, align 8
  store i64 %1, ptr %4, align 8
  %5 = load ptr, ptr %3, align 8
  %6 = load i64, ptr %4, align 8
  %7 = getelementptr inbounds [116 x double], ptr %5, i64 0, i64 %6
  ret ptr %7
}

; Function Attrs: mustprogress nounwind uwtable
define linkonce_odr noundef nonnull align 8 dereferenceable(8) ptr @_ZNKSt5arrayIdLm116EEixEm(ptr noundef nonnull align 8 dereferenceable(928) %0, i64 noundef %1) #1 comdat align 2 {
  %3 = alloca ptr, align 8
  %4 = alloca i64, align 8
  store ptr %0, ptr %3, align 8
  store i64 %1, ptr %4, align 8
  %5 = load ptr, ptr %3, align 8
  %6 = getelementptr inbounds %"struct.std::array.151", ptr %5, i32 0, i32 0
  %7 = load i64, ptr %4, align 8
  %8 = call noundef nonnull align 8 dereferenceable(8) ptr @_ZNSt14__array_traitsIdLm116EE6_S_refERA116_Kdm(ptr noundef nonnull align 8 dereferenceable(928) %6, i64 noundef %7) #9
  ret ptr %8
}

; Function Attrs: mustprogress uwtable
define internal noundef double @_ZL16force_flop_countPK6t_nrnb(ptr noundef %0) #0 {
  %2 = alloca ptr, align 8
  %3 = alloca double, align 8
  %4 = alloca i32, align 4
  %5 = alloca ptr, align 8
  %6 = alloca i32, align 4
  %7 = alloca ptr, align 8
  %8 = alloca i32, align 4
  store ptr %0, ptr %2, align 8
  store double 0.000000e+00, ptr %3, align 8
  store i32 0, ptr %4, align 4
  br label %9

9:                                                ; preds = %49, %1
  %10 = load i32, ptr %4, align 4
  %11 = icmp slt i32 %10, 24
  br i1 %11, label %12, label %52

12:                                               ; preds = %9
  %13 = load i32, ptr %4, align 4
  %14 = call noundef ptr @_Z8nrnb_stri(i32 noundef %13)
  store ptr %14, ptr %5, align 8
  %15 = load ptr, ptr %5, align 8
  %16 = call noundef ptr @strstr(ptr noundef %15, ptr noundef @.str) #13
  %17 = icmp ne ptr %16, null
  br i1 %17, label %22, label %18

18:                                               ; preds = %12
  %19 = load ptr, ptr %5, align 8
  %20 = call noundef ptr @strstr(ptr noundef %19, ptr noundef @.str.1) #13
  %21 = icmp ne ptr %20, null
  br i1 %21, label %22, label %35

22:                                               ; preds = %18, %12
  %23 = load ptr, ptr %2, align 8
  %24 = getelementptr inbounds %struct.t_nrnb, ptr %23, i32 0, i32 0
  %25 = load i32, ptr %4, align 4
  %26 = sext i32 %25 to i64
  %27 = call noundef nonnull align 8 dereferenceable(8) ptr @_ZNKSt5arrayIdLm116EEixEm(ptr noundef nonnull align 8 dereferenceable(928) %24, i64 noundef %26) #9
  %28 = load double, ptr %27, align 8
  %29 = fmul double %28, 2.500000e-01
  %30 = load i32, ptr %4, align 4
  %31 = call noundef i32 @_Z9cost_nrnbi(i32 noundef %30)
  %32 = sitofp i32 %31 to double
  %33 = load double, ptr %3, align 8
  %34 = call double @llvm.fmuladd.f64(double %29, double %32, double %33)
  store double %34, ptr %3, align 8
  br label %48

35:                                               ; preds = %18
  %36 = load ptr, ptr %2, align 8
  %37 = getelementptr inbounds %struct.t_nrnb, ptr %36, i32 0, i32 0
  %38 = load i32, ptr %4, align 4
  %39 = sext i32 %38 to i64
  %40 = call noundef nonnull align 8 dereferenceable(8) ptr @_ZNKSt5arrayIdLm116EEixEm(ptr noundef nonnull align 8 dereferenceable(928) %37, i64 noundef %39) #9
  %41 = load double, ptr %40, align 8
  %42 = fmul double %41, 5.000000e-01
  %43 = load i32, ptr %4, align 4
  %44 = call noundef i32 @_Z9cost_nrnbi(i32 noundef %43)
  %45 = sitofp i32 %44 to double
  %46 = load double, ptr %3, align 8
  %47 = call double @llvm.fmuladd.f64(double %42, double %45, double %46)
  store double %47, ptr %3, align 8
  br label %48

48:                                               ; preds = %35, %22
  br label %49

49:                                               ; preds = %48
  %50 = load i32, ptr %4, align 4
  %51 = add nsw i32 %50, 1
  store i32 %51, ptr %4, align 4
  br label %9, !llvm.loop !6

52:                                               ; preds = %9
  store i32 24, ptr %6, align 4
  br label %53

53:                                               ; preds = %79, %52
  %54 = load i32, ptr %6, align 4
  %55 = icmp sle i32 %54, 46
  br i1 %55, label %56, label %82

56:                                               ; preds = %53
  %57 = load i32, ptr %6, align 4
  %58 = call noundef ptr @_Z8nrnb_stri(i32 noundef %57)
  store ptr %58, ptr %7, align 8
  %59 = load ptr, ptr %7, align 8
  %60 = call noundef ptr @strstr(ptr noundef %59, ptr noundef @.str) #13
  %61 = icmp ne ptr %60, null
  br i1 %61, label %66, label %62

62:                                               ; preds = %56
  %63 = load ptr, ptr %7, align 8
  %64 = call noundef ptr @strstr(ptr noundef %63, ptr noundef @.str.1) #13
  %65 = icmp ne ptr %64, null
  br i1 %65, label %66, label %78

66:                                               ; preds = %62, %56
  %67 = load ptr, ptr %2, align 8
  %68 = getelementptr inbounds %struct.t_nrnb, ptr %67, i32 0, i32 0
  %69 = load i32, ptr %6, align 4
  %70 = sext i32 %69 to i64
  %71 = call noundef nonnull align 8 dereferenceable(8) ptr @_ZNKSt5arrayIdLm116EEixEm(ptr noundef nonnull align 8 dereferenceable(928) %68, i64 noundef %70) #9
  %72 = load double, ptr %71, align 8
  %73 = load i32, ptr %6, align 4
  %74 = call noundef i32 @_Z9cost_nrnbi(i32 noundef %73)
  %75 = sitofp i32 %74 to double
  %76 = load double, ptr %3, align 8
  %77 = call double @llvm.fmuladd.f64(double %72, double %75, double %76)
  store double %77, ptr %3, align 8
  br label %78

78:                                               ; preds = %66, %62
  br label %79

79:                                               ; preds = %78
  %80 = load i32, ptr %6, align 4
  %81 = add nsw i32 %80, 1
  store i32 %81, ptr %6, align 4
  br label %53, !llvm.loop !8

82:                                               ; preds = %53
  store i32 60, ptr %8, align 4
  br label %83

83:                                               ; preds = %98, %82
  %84 = load i32, ptr %8, align 4
  %85 = icmp sle i32 %84, 84
  br i1 %85, label %86, label %101

86:                                               ; preds = %83
  %87 = load ptr, ptr %2, align 8
  %88 = getelementptr inbounds %struct.t_nrnb, ptr %87, i32 0, i32 0
  %89 = load i32, ptr %8, align 4
  %90 = sext i32 %89 to i64
  %91 = call noundef nonnull align 8 dereferenceable(8) ptr @_ZNKSt5arrayIdLm116EEixEm(ptr noundef nonnull align 8 dereferenceable(928) %88, i64 noundef %90) #9
  %92 = load double, ptr %91, align 8
  %93 = load i32, ptr %8, align 4
  %94 = call noundef i32 @_Z9cost_nrnbi(i32 noundef %93)
  %95 = sitofp i32 %94 to double
  %96 = load double, ptr %3, align 8
  %97 = call double @llvm.fmuladd.f64(double %92, double %95, double %96)
  store double %97, ptr %3, align 8
  br label %98

98:                                               ; preds = %86
  %99 = load i32, ptr %8, align 4
  %100 = add nsw i32 %99, 1
  store i32 %100, ptr %8, align 4
  br label %83, !llvm.loop !9

101:                                              ; preds = %83
  %102 = load double, ptr %3, align 8
  ret double %102
}