; Function Attrs: mustprogress uwtable
define internal fastcc noundef double @_ZL16force_flop_countPK6t_nrnb(ptr nocapture noundef readonly %0) unnamed_addr #0 {
  br label %2

2:                                                ; preds = %1, %8
  %indvars.iv = phi i64 [ 0, %1 ], [ %indvars.iv.next, %8 ]
  %.02836 = phi double [ 0.000000e+00, %1 ], [ %14, %8 ]
  %3 = trunc nuw nsw i64 %indvars.iv to i32
  %4 = tail call noundef ptr @_Z8nrnb_stri(i32 noundef %3)
  %5 = tail call noundef ptr @strstr(ptr noundef nonnull dereferenceable(1) %4, ptr noundef nonnull dereferenceable(1) @.str) #13
  %.not32 = icmp eq ptr %5, null
  br i1 %.not32, label %6, label %8

6:                                                ; preds = %2
  %7 = tail call noundef ptr @strstr(ptr noundef nonnull dereferenceable(1) %4, ptr noundef nonnull dereferenceable(1) @.str.1) #13
  %.not33 = icmp eq ptr %7, null
  %spec.select = select i1 %.not33, double 5.000000e-01, double 2.500000e-01
  br label %8

8:                                                ; preds = %6, %2
  %.sink53 = phi double [ 2.500000e-01, %2 ], [ %spec.select, %6 ]
  %9 = getelementptr inbounds [116 x double], ptr %0, i64 0, i64 %indvars.iv
  %10 = load double, ptr %9, align 8
  %11 = fmul double %10, %.sink53
  %12 = tail call noundef i32 @_Z9cost_nrnbi(i32 noundef %3)
  %13 = sitofp i32 %12 to double
  %14 = tail call double @llvm.fmuladd.f64(double %11, double %13, double %.02836)
  %indvars.iv.next = add nuw nsw i64 %indvars.iv, 1
  %exitcond.not = icmp eq i64 %indvars.iv.next, 24
  br i1 %exitcond.not, label %.preheader34, label %2, !llvm.loop !9

.preheader34:                                     ; preds = %8, %26
  %indvars.iv42 = phi i64 [ %indvars.iv.next43, %26 ], [ 24, %8 ]
  %.238 = phi double [ %.3, %26 ], [ %14, %8 ]
  %15 = trunc nuw nsw i64 %indvars.iv42 to i32
  %16 = tail call noundef ptr @_Z8nrnb_stri(i32 noundef %15)
  %17 = tail call noundef ptr @strstr(ptr noundef nonnull dereferenceable(1) %16, ptr noundef nonnull dereferenceable(1) @.str) #13
  %.not = icmp eq ptr %17, null
  br i1 %.not, label %18, label %20

18:                                               ; preds = %.preheader34
  %19 = tail call noundef ptr @strstr(ptr noundef nonnull dereferenceable(1) %16, ptr noundef nonnull dereferenceable(1) @.str.1) #13
  %.not31 = icmp eq ptr %19, null
  br i1 %.not31, label %26, label %20

20:                                               ; preds = %18, %.preheader34
  %21 = getelementptr inbounds [116 x double], ptr %0, i64 0, i64 %indvars.iv42
  %22 = load double, ptr %21, align 8
  %23 = tail call noundef i32 @_Z9cost_nrnbi(i32 noundef %15)
  %24 = sitofp i32 %23 to double
  %25 = tail call double @llvm.fmuladd.f64(double %22, double %24, double %.238)
  br label %26

26:                                               ; preds = %18, %20
  %.3 = phi double [ %25, %20 ], [ %.238, %18 ]
  %indvars.iv.next43 = add nuw nsw i64 %indvars.iv42, 1
  %exitcond45.not = icmp eq i64 %indvars.iv.next43, 47
  br i1 %exitcond45.not, label %.preheader, label %.preheader34, !llvm.loop !11

.preheader:                                       ; preds = %26, %.preheader
  %indvars.iv46 = phi i64 [ %indvars.iv.next47, %.preheader ], [ 60, %26 ]
  %.439 = phi double [ %32, %.preheader ], [ %.3, %26 ]
  %27 = getelementptr inbounds [116 x double], ptr %0, i64 0, i64 %indvars.iv46
  %28 = load double, ptr %27, align 8
  %29 = trunc nuw nsw i64 %indvars.iv46 to i32
  %30 = tail call noundef i32 @_Z9cost_nrnbi(i32 noundef %29)
  %31 = sitofp i32 %30 to double
  %32 = tail call double @llvm.fmuladd.f64(double %28, double %31, double %.439)
  %indvars.iv.next47 = add nuw nsw i64 %indvars.iv46, 1
  %exitcond49.not = icmp eq i64 %indvars.iv.next47, 85
  br i1 %exitcond49.not, label %33, label %.preheader, !llvm.loop !12

33:                                               ; preds = %.preheader
  ret double %32
}